; Function Attrs: mustprogress uwtable
define noundef nonnull align 8 dereferenceable(757) ptr @_ZN6icu_776number4impl23DecimalFormatProperties10getDefaultEv() local_unnamed_addr #0 align 2 personality ptr @__gxx_personality_v0 {
  %1 = load atomic i32, ptr @_ZN12_GLOBAL__N_126gDefaultPropertiesInitOnceE acquire, align 4
  %.not11.i = icmp eq i32 %1, 2
  br i1 %.not11.i, label %_ZN6icu_7713umtx_initOnceERNS_9UInitOnceEPFvR10UErrorCodeES3_.exit, label %2

2:                                                ; preds = %0
  %3 = tail call noundef signext i8 @_ZN6icu_7720umtx_initImplPreInitERNS_9UInitOnceE(ptr noundef nonnull align 4 dereferenceable(8) @_ZN12_GLOBAL__N_126gDefaultPropertiesInitOnceE)
  %.not12.i = icmp eq i8 %3, 0
  br i1 %.not12.i, label %_ZN6icu_7713umtx_initOnceERNS_9UInitOnceEPFvR10UErrorCodeES3_.exit, label %4

4:                                                ; preds = %2
  tail call void @_ZN6icu_776number4impl23DecimalFormatPropertiesC1Ev(ptr noundef nonnull align 8 dereferenceable(757) @_ZN12_GLOBAL__N_121kRawDefaultPropertiesE)
  store i32 0, ptr getelementptr inbounds nuw (i8, ptr @_ZN12_GLOBAL__N_126gDefaultPropertiesInitOnceE, i64 4), align 4, !tbaa !77
  tail call void @_ZN6icu_7721umtx_initImplPostInitERNS_9UInitOnceE(ptr noundef nonnull align 4 dereferenceable(8) @_ZN12_GLOBAL__N_126gDefaultPropertiesInitOnceE)
  br label %_ZN6icu_7713umtx_initOnceERNS_9UInitOnceEPFvR10UErrorCodeES3_.exit

_ZN6icu_7713umtx_initOnceERNS_9UInitOnceEPFvR10UErrorCodeES3_.exit: ; preds = %0, %2, %4
  ret ptr @_ZN12_GLOBAL__N_121kRawDefaultPropertiesE
}